
example1O0:	file format Mach-O 64-bit x86-64

Disassembly of section __TEXT,__text:
__text:
100000ee0:	55 	pushq	%rbp
100000ee1:	48 89 e5 	movq	%rsp, %rbp
100000ee4:	48 83 ec 10 	subq	$16, %rsp
100000ee8:	c7 45 fc 00 00 00 00 	movl	$0, -4(%rbp)
100000eef:	48 8d 3d b2 00 00 00 	leaq	178(%rip), %rdi
100000ef6:	48 8d 75 f8 	leaq	-8(%rbp), %rsi
100000efa:	b0 00 	movb	$0, %al
100000efc:	e8 7b 00 00 00 	callq	123 <dyld_stub_binder+0x100000f7c>
100000f01:	48 8d 7d f8 	leaq	-8(%rbp), %rdi
100000f05:	89 45 f4 	movl	%eax, -12(%rbp)
100000f08:	e8 33 00 00 00 	callq	51 <_function1>
100000f0d:	48 8d 7d f8 	leaq	-8(%rbp), %rdi
100000f11:	e8 4a 00 00 00 	callq	74 <_function2>
100000f16:	8b 75 f8 	movl	-8(%rbp), %esi
100000f19:	48 8d 3d 8b 00 00 00 	leaq	139(%rip), %rdi
100000f20:	b0 00 	movb	$0, %al
100000f22:	e8 4f 00 00 00 	callq	79 <dyld_stub_binder+0x100000f76>
100000f27:	31 f6 	xorl	%esi, %esi
100000f29:	89 45 f0 	movl	%eax, -16(%rbp)
100000f2c:	89 f0 	movl	%esi, %eax
100000f2e:	48 83 c4 10 	addq	$16, %rsp
100000f32:	5d 	popq	%rbp
100000f33:	c3 	retq
100000f34:	66 2e 0f 1f 84 00 00 00 00 00 	nopw	%cs:(%rax,%rax)
100000f3e:	66 90 	nop
100000f40:	55 	pushq	%rbp
100000f41:	48 89 e5 	movq	%rsp, %rbp
100000f44:	48 89 7d f8 	movq	%rdi, -8(%rbp)
100000f48:	48 8b 7d f8 	movq	-8(%rbp), %rdi
100000f4c:	8b 07 	movl	(%rdi), %eax
100000f4e:	83 c0 01 	addl	$1, %eax
100000f51:	89 07 	movl	%eax, (%rdi)
100000f53:	5d 	popq	%rbp
100000f54:	c3 	retq
100000f55:	66 2e 0f 1f 84 00 00 00 00 00 	nopw	%cs:(%rax,%rax)
100000f5f:	90 	nop
100000f60:	55 	pushq	%rbp
100000f61:	48 89 e5 	movq	%rsp, %rbp
100000f64:	48 89 7d f8 	movq	%rdi, -8(%rbp)
100000f68:	48 8b 7d f8 	movq	-8(%rbp), %rdi
100000f6c:	8b 07 	movl	(%rdi), %eax
100000f6e:	83 c0 02 	addl	$2, %eax
100000f71:	89 07 	movl	%eax, (%rdi)
100000f73:	5d 	popq	%rbp
100000f74:	c3 	retq

_main:
100000ee0:	55 	pushq	%rbp
100000ee1:	48 89 e5 	movq	%rsp, %rbp
100000ee4:	48 83 ec 10 	subq	$16, %rsp
100000ee8:	c7 45 fc 00 00 00 00 	movl	$0, -4(%rbp)
100000eef:	48 8d 3d b2 00 00 00 	leaq	178(%rip), %rdi
100000ef6:	48 8d 75 f8 	leaq	-8(%rbp), %rsi
100000efa:	b0 00 	movb	$0, %al
100000efc:	e8 7b 00 00 00 	callq	123 <dyld_stub_binder+0x100000f7c>
100000f01:	48 8d 7d f8 	leaq	-8(%rbp), %rdi
100000f05:	89 45 f4 	movl	%eax, -12(%rbp)
100000f08:	e8 33 00 00 00 	callq	51 <_function1>
100000f0d:	48 8d 7d f8 	leaq	-8(%rbp), %rdi
100000f11:	e8 4a 00 00 00 	callq	74 <_function2>
100000f16:	8b 75 f8 	movl	-8(%rbp), %esi
100000f19:	48 8d 3d 8b 00 00 00 	leaq	139(%rip), %rdi
100000f20:	b0 00 	movb	$0, %al
100000f22:	e8 4f 00 00 00 	callq	79 <dyld_stub_binder+0x100000f76>
100000f27:	31 f6 	xorl	%esi, %esi
100000f29:	89 45 f0 	movl	%eax, -16(%rbp)
100000f2c:	89 f0 	movl	%esi, %eax
100000f2e:	48 83 c4 10 	addq	$16, %rsp
100000f32:	5d 	popq	%rbp
100000f33:	c3 	retq
100000f34:	66 2e 0f 1f 84 00 00 00 00 00 	nopw	%cs:(%rax,%rax)
100000f3e:	66 90 	nop

_function1:
100000f40:	55 	pushq	%rbp
100000f41:	48 89 e5 	movq	%rsp, %rbp
100000f44:	48 89 7d f8 	movq	%rdi, -8(%rbp)
100000f48:	48 8b 7d f8 	movq	-8(%rbp), %rdi
100000f4c:	8b 07 	movl	(%rdi), %eax
100000f4e:	83 c0 01 	addl	$1, %eax
100000f51:	89 07 	movl	%eax, (%rdi)
100000f53:	5d 	popq	%rbp
100000f54:	c3 	retq
100000f55:	66 2e 0f 1f 84 00 00 00 00 00 	nopw	%cs:(%rax,%rax)
100000f5f:	90 	nop

_function2:
100000f60:	55 	pushq	%rbp
100000f61:	48 89 e5 	movq	%rsp, %rbp
100000f64:	48 89 7d f8 	movq	%rdi, -8(%rbp)
100000f68:	48 8b 7d f8 	movq	-8(%rbp), %rdi
100000f6c:	8b 07 	movl	(%rdi), %eax
100000f6e:	83 c0 02 	addl	$2, %eax
100000f71:	89 07 	movl	%eax, (%rdi)
100000f73:	5d 	popq	%rbp
100000f74:	c3 	retq
Disassembly of section __TEXT,__stubs:
__stubs:
100000f76:	ff 25 94 00 00 00 	jmpq	*148(%rip)
100000f7c:	ff 25 96 00 00 00 	jmpq	*150(%rip)
Disassembly of section __TEXT,__stub_helper:
__stub_helper:
100000f84:	4c 8d 1d 7d 00 00 00 	leaq	125(%rip), %r11
100000f8b:	41 53 	pushq	%r11
100000f8d:	ff 25 6d 00 00 00 	jmpq	*109(%rip)
100000f93:	90 	nop
100000f94:	68 00 00 00 00 	pushq	$0
100000f99:	e9 e6 ff ff ff 	jmp	-26 <__stub_helper>
100000f9e:	68 0e 00 00 00 	pushq	$14
100000fa3:	e9 dc ff ff ff 	jmp	-36 <__stub_helper>
Disassembly of section __TEXT,__cstring:
__cstring:
100000fa8:	25 64 00 25 64 	andl	$1680146532, %eax
100000fad:	0a 00 	orb	(%rax), %al
Disassembly of section __TEXT,__unwind_info:
__unwind_info:
100000fb0:	01 00 	addl	%eax, (%rax)
100000fb2:	00 00 	addb	%al, (%rax)
100000fb4:	1c 00 	sbbb	$0, %al
100000fb6:	00 00 	addb	%al, (%rax)
100000fb8:	00 00 	addb	%al, (%rax)
100000fba:	00 00 	addb	%al, (%rax)
100000fbc:	1c 00 	sbbb	$0, %al
100000fbe:	00 00 	addb	%al, (%rax)
100000fc0:	00 00 	addb	%al, (%rax)
100000fc2:	00 00 	addb	%al, (%rax)
100000fc4:	1c 00 	sbbb	$0, %al
100000fc6:	00 00 	addb	%al, (%rax)
100000fc8:	02 00 	addb	(%rax), %al
100000fca:	00 00 	addb	%al, (%rax)
100000fcc:	e0 0e 	loopne	14
100000fce:	00 00 	addb	%al, (%rax)
100000fd0:	34 00 	xorb	$0, %al
100000fd2:	00 00 	addb	%al, (%rax)
100000fd4:	34 00 	xorb	$0, %al
100000fd6:	00 00 	addb	%al, (%rax)
100000fd8:	76 0f 	jbe	15 <__unwind_info+0x39>
100000fda:	00 00 	addb	%al, (%rax)
100000fdc:	00 00 	addb	%al, (%rax)
100000fde:	00 00 	addb	%al, (%rax)
100000fe0:	34 00 	xorb	$0, %al
100000fe2:	00 00 	addb	%al, (%rax)
100000fe4:	03 00 	addl	(%rax), %eax
100000fe6:	00 00 	addb	%al, (%rax)
100000fe8:	0c 00 	orb	$0, %al
100000fea:	01 00 	addl	%eax, (%rax)
100000fec:	10 00 	adcb	%al, (%rax)
100000fee:	01 00 	addl	%eax, (%rax)
100000ff0:	00 00 	addb	%al, (%rax)
100000ff2:	00 00 	addb	%al, (%rax)
100000ff4:	00 00 	addb	%al, (%rax)
100000ff6:	00 01 	addb	%al, (%rcx)
Disassembly of section __DATA,__nl_symbol_ptr:
__nl_symbol_ptr:
100001000:	00 00 	addb	%al, (%rax)
100001002:	00 00 	addb	%al, (%rax)
100001004:	00 00 	addb	%al, (%rax)
100001006:	00 00 	addb	%al, (%rax)
100001008:	00 00 	addb	%al, (%rax)
10000100a:	00 00 	addb	%al, (%rax)
10000100c:	00 00 	addb	%al, (%rax)
10000100e:	00 00 	addb	%al, (%rax)
Disassembly of section __DATA,__la_symbol_ptr:
__la_symbol_ptr:
100001010:	94 	xchgl	%esp, %eax
100001011:	0f 00 00 	sldtw	(%rax)
100001014:	01 00 	addl	%eax, (%rax)
100001016:	00 00 	addb	%al, (%rax)
100001018:	9e 	sahf
100001019:	0f 00 00 	sldtw	(%rax)
10000101c:	01 00 	addl	%eax, (%rax)
10000101e:	00 00 	addb	%al, (%rax)
